; Function Attrs: mustprogress nofree norecurse nosync nounwind willreturn memory(argmem: read) uwtable
define noundef zeroext i1 @_ZN6icu_758numparse4impl12ParsedNumber12isBetterThanERKS2_(ptr nocapture noundef nonnull readonly align 8 dereferenceable(216) %this, ptr nocapture noundef nonnull readonly align 8 dereferenceable(216) %other) local_unnamed_addr #3 align 2 {
entry:
  %charEnd = getelementptr inbounds i8, ptr %this, i64 72
  %0 = load i32, ptr %charEnd, align 8
  %charEnd2 = getelementptr inbounds i8, ptr %other, i64 72
  %1 = load i32, ptr %charEnd2, align 8
  %cmp = icmp sgt i32 %0, %1
  ret i1 %cmp
}